target datalayout = "e-m:e-p270:32:32-p271:32:32-p272:64:64-i64:64-i128:128-f80:128-n8:16:32:64-S128"
target triple = "x86_64-pc-linux-gnu"

%struct.ssl_trace_tbl = type { i32, ptr }

@.str.12 = private unnamed_addr constant [2 x i8] c"\0A\00", align 1
@.str.13 = private unnamed_addr constant [14 x i8] c"%s (len=%d): \00", align 1
@.str.14 = private unnamed_addr constant [5 x i8] c"%02X\00", align 1
@.str.15 = private unnamed_addr constant [8 x i8] c"UNKNOWN\00", align 1
@.str.59 = private unnamed_addr constant [7 x i8] c"cookie\00", align 1
@.str.64 = private unnamed_addr constant [14 x i8] c"%s=0x%x (%s)\0A\00", align 1
@.str.416 = private unnamed_addr constant [15 x i8] c"server_version\00", align 1

; Function Attrs: nounwind uwtable
define internal void @ssl_print_hex(ptr noundef %0, i32 noundef %1, ptr noundef %2, ptr noundef %3, i64 noundef %4) #0 {
  %6 = alloca ptr, align 8
  %7 = alloca i32, align 4
  %8 = alloca ptr, align 8
  %9 = alloca ptr, align 8
  %10 = alloca i64, align 8
  %11 = alloca i64, align 8
  store ptr %0, ptr %6, align 8, !tbaa !15
  store i32 %1, ptr %7, align 4, !tbaa !3
  store ptr %2, ptr %8, align 8, !tbaa !13
  store ptr %3, ptr %9, align 8, !tbaa !13
  store i64 %4, ptr %10, align 8, !tbaa !9
  call void @llvm.lifetime.start.p0(i64 8, ptr %11) #3
  %12 = load ptr, ptr %6, align 8, !tbaa !15
  %13 = load i32, ptr %7, align 4, !tbaa !3
  %14 = call i32 @BIO_indent(ptr noundef %12, i32 noundef %13, i32 noundef 80)
  %15 = load ptr, ptr %6, align 8, !tbaa !15
  %16 = load ptr, ptr %8, align 8, !tbaa !13
  %17 = load i64, ptr %10, align 8, !tbaa !9
  %18 = trunc i64 %17 to i32
  %19 = call i32 (ptr, ptr, ...) @BIO_printf(ptr noundef %15, ptr noundef @.str.13, ptr noundef %16, i32 noundef %18)
  store i64 0, ptr %11, align 8, !tbaa !9
  br label %20

20:                                               ; preds = %32, %5
  %21 = load i64, ptr %11, align 8, !tbaa !9
  %22 = load i64, ptr %10, align 8, !tbaa !9
  %23 = icmp ult i64 %21, %22
  br i1 %23, label %24, label %35

24:                                               ; preds = %20
  %25 = load ptr, ptr %6, align 8, !tbaa !15
  %26 = load ptr, ptr %9, align 8, !tbaa !13
  %27 = load i64, ptr %11, align 8, !tbaa !9
  %28 = getelementptr inbounds nuw i8, ptr %26, i64 %27
  %29 = load i8, ptr %28, align 1, !tbaa !84
  %30 = zext i8 %29 to i32
  %31 = call i32 (ptr, ptr, ...) @BIO_printf(ptr noundef %25, ptr noundef @.str.14, i32 noundef %30)
  br label %32

32:                                               ; preds = %24
  %33 = load i64, ptr %11, align 8, !tbaa !9
  %34 = add i64 %33, 1
  store i64 %34, ptr %11, align 8, !tbaa !9
  br label %20, !llvm.loop !86

35:                                               ; preds = %20
  %36 = load ptr, ptr %6, align 8, !tbaa !15
  %37 = call i32 @BIO_puts(ptr noundef %36, ptr noundef @.str.12)
  call void @llvm.lifetime.end.p0(i64 8, ptr %11) #3
  ret void
}

; Function Attrs: nounwind uwtable
define internal ptr @do_ssl_trace_str(i32 noundef %0, ptr noundef %1, i64 noundef %2) #0 {
  %4 = alloca ptr, align 8
  %5 = alloca i32, align 4
  %6 = alloca ptr, align 8
  %7 = alloca i64, align 8
  %8 = alloca i64, align 8
  %9 = alloca i32, align 4
  store i32 %0, ptr %5, align 4, !tbaa !3
  store ptr %1, ptr %6, align 8, !tbaa !7
  store i64 %2, ptr %7, align 8, !tbaa !9
  call void @llvm.lifetime.start.p0(i64 8, ptr %8) #3
  store i64 0, ptr %8, align 8, !tbaa !9
  br label %10

10:                                               ; preds = %25, %3
  %11 = load i64, ptr %8, align 8, !tbaa !9
  %12 = load i64, ptr %7, align 8, !tbaa !9
  %13 = icmp ult i64 %11, %12
  br i1 %13, label %14, label %30

14:                                               ; preds = %10
  %15 = load ptr, ptr %6, align 8, !tbaa !7
  %16 = getelementptr inbounds nuw %struct.ssl_trace_tbl, ptr %15, i32 0, i32 0
  %17 = load i32, ptr %16, align 8, !tbaa !88
  %18 = load i32, ptr %5, align 4, !tbaa !3
  %19 = icmp eq i32 %17, %18
  br i1 %19, label %20, label %24

20:                                               ; preds = %14
  %21 = load ptr, ptr %6, align 8, !tbaa !7
  %22 = getelementptr inbounds nuw %struct.ssl_trace_tbl, ptr %21, i32 0, i32 1
  %23 = load ptr, ptr %22, align 8, !tbaa !90
  store ptr %23, ptr %4, align 8
  store i32 1, ptr %9, align 4
  br label %31

24:                                               ; preds = %14
  br label %25

25:                                               ; preds = %24
  %26 = load i64, ptr %8, align 8, !tbaa !9
  %27 = add i64 %26, 1
  store i64 %27, ptr %8, align 8, !tbaa !9
  %28 = load ptr, ptr %6, align 8, !tbaa !7
  %29 = getelementptr inbounds nuw %struct.ssl_trace_tbl, ptr %28, i32 1
  store ptr %29, ptr %6, align 8, !tbaa !7
  br label %10, !llvm.loop !91

30:                                               ; preds = %10
  store ptr @.str.15, ptr %4, align 8
  store i32 1, ptr %9, align 4
  br label %31

31:                                               ; preds = %30, %20
  call void @llvm.lifetime.end.p0(i64 8, ptr %8) #3
  %32 = load ptr, ptr %4, align 8
  ret ptr %32
}

; Function Attrs: nounwind uwtable
define internal i32 @ssl_print_hexbuf(ptr noundef %0, i32 noundef %1, ptr noundef %2, i64 noundef %3, ptr noundef %4, ptr noundef %5) #0 {
  %7 = alloca i32, align 4
  %8 = alloca ptr, align 8
  %9 = alloca i32, align 4
  %10 = alloca ptr, align 8
  %11 = alloca i64, align 8
  %12 = alloca ptr, align 8
  %13 = alloca ptr, align 8
  %14 = alloca i64, align 8
  %15 = alloca ptr, align 8
  %16 = alloca i32, align 4
  store ptr %0, ptr %8, align 8, !tbaa !15
  store i32 %1, ptr %9, align 4, !tbaa !3
  store ptr %2, ptr %10, align 8, !tbaa !13
  store i64 %3, ptr %11, align 8, !tbaa !9
  store ptr %4, ptr %12, align 8, !tbaa !98
  store ptr %5, ptr %13, align 8, !tbaa !100
  call void @llvm.lifetime.start.p0(i64 8, ptr %14) #3
  call void @llvm.lifetime.start.p0(i64 8, ptr %15) #3
  %17 = load ptr, ptr %12, align 8, !tbaa !98
  %18 = load ptr, ptr %17, align 8, !tbaa !13
  store ptr %18, ptr %15, align 8, !tbaa !13
  %19 = load ptr, ptr %13, align 8, !tbaa !100
  %20 = load i64, ptr %19, align 8, !tbaa !9
  %21 = load i64, ptr %11, align 8, !tbaa !9
  %22 = icmp ult i64 %20, %21
  br i1 %22, label %23, label %24

23:                                               ; preds = %6
  store i32 0, ptr %7, align 4
  store i32 1, ptr %16, align 4
  br label %68

24:                                               ; preds = %6
  %25 = load ptr, ptr %15, align 8, !tbaa !13
  %26 = getelementptr inbounds i8, ptr %25, i64 0
  %27 = load i8, ptr %26, align 1, !tbaa !84
  %28 = zext i8 %27 to i64
  store i64 %28, ptr %14, align 8, !tbaa !9
  %29 = load i64, ptr %11, align 8, !tbaa !9
  %30 = icmp ugt i64 %29, 1
  br i1 %30, label %31, label %39

31:                                               ; preds = %24
  %32 = load i64, ptr %14, align 8, !tbaa !9
  %33 = shl i64 %32, 8
  %34 = load ptr, ptr %15, align 8, !tbaa !13
  %35 = getelementptr inbounds i8, ptr %34, i64 1
  %36 = load i8, ptr %35, align 1, !tbaa !84
  %37 = zext i8 %36 to i64
  %38 = or i64 %33, %37
  store i64 %38, ptr %14, align 8, !tbaa !9
  br label %39

39:                                               ; preds = %31, %24
  %40 = load ptr, ptr %13, align 8, !tbaa !100
  %41 = load i64, ptr %40, align 8, !tbaa !9
  %42 = load i64, ptr %11, align 8, !tbaa !9
  %43 = load i64, ptr %14, align 8, !tbaa !9
  %44 = add i64 %42, %43
  %45 = icmp ult i64 %41, %44
  br i1 %45, label %46, label %47

46:                                               ; preds = %39
  store i32 0, ptr %7, align 4
  store i32 1, ptr %16, align 4
  br label %68

47:                                               ; preds = %39
  %48 = load i64, ptr %11, align 8, !tbaa !9
  %49 = load ptr, ptr %15, align 8, !tbaa !13
  %50 = getelementptr inbounds nuw i8, ptr %49, i64 %48
  store ptr %50, ptr %15, align 8, !tbaa !13
  %51 = load ptr, ptr %8, align 8, !tbaa !15
  %52 = load i32, ptr %9, align 4, !tbaa !3
  %53 = load ptr, ptr %10, align 8, !tbaa !13
  %54 = load ptr, ptr %15, align 8, !tbaa !13
  %55 = load i64, ptr %14, align 8, !tbaa !9
  call void @ssl_print_hex(ptr noundef %51, i32 noundef %52, ptr noundef %53, ptr noundef %54, i64 noundef %55)
  %56 = load i64, ptr %14, align 8, !tbaa !9
  %57 = load i64, ptr %11, align 8, !tbaa !9
  %58 = add i64 %56, %57
  %59 = load ptr, ptr %12, align 8, !tbaa !98
  %60 = load ptr, ptr %59, align 8, !tbaa !13
  %61 = getelementptr inbounds nuw i8, ptr %60, i64 %58
  store ptr %61, ptr %59, align 8, !tbaa !13
  %62 = load i64, ptr %14, align 8, !tbaa !9
  %63 = load i64, ptr %11, align 8, !tbaa !9
  %64 = add i64 %62, %63
  %65 = load ptr, ptr %13, align 8, !tbaa !100
  %66 = load i64, ptr %65, align 8, !tbaa !9
  %67 = sub i64 %66, %64
  store i64 %67, ptr %65, align 8, !tbaa !9
  store i32 1, ptr %7, align 4
  store i32 1, ptr %16, align 4
  br label %68

68:                                               ; preds = %47, %46, %23
  call void @llvm.lifetime.end.p0(i64 8, ptr %15) #3
  call void @llvm.lifetime.end.p0(i64 8, ptr %14) #3
  %69 = load i32, ptr %7, align 4
  ret i32 %69
}

; Function Attrs: nounwind uwtable
define internal i32 @ssl_print_version(ptr noundef %0, i32 noundef %1, ptr noundef %2, ptr noundef %3, ptr noundef %4, ptr noundef %5) #0 {
  %7 = alloca i32, align 4
  %8 = alloca ptr, align 8
  %9 = alloca i32, align 4
  %10 = alloca ptr, align 8
  %11 = alloca ptr, align 8
  %12 = alloca ptr, align 8
  %13 = alloca ptr, align 8
  %14 = alloca i32, align 4
  %15 = alloca i32, align 4
  store ptr %0, ptr %8, align 8, !tbaa !15
  store i32 %1, ptr %9, align 4, !tbaa !3
  store ptr %2, ptr %10, align 8, !tbaa !13
  store ptr %3, ptr %11, align 8, !tbaa !98
  store ptr %4, ptr %12, align 8, !tbaa !100
  store ptr %5, ptr %13, align 8, !tbaa !107
  call void @llvm.lifetime.start.p0(i64 4, ptr %14) #3
  %16 = load ptr, ptr %12, align 8, !tbaa !100
  %17 = load i64, ptr %16, align 8, !tbaa !9
  %18 = icmp ult i64 %17, 2
  br i1 %18, label %19, label %20

19:                                               ; preds = %6
  store i32 0, ptr %7, align 4
  store i32 1, ptr %15, align 4
  br label %54

20:                                               ; preds = %6
  %21 = load ptr, ptr %11, align 8, !tbaa !98
  %22 = load ptr, ptr %21, align 8, !tbaa !13
  %23 = getelementptr inbounds i8, ptr %22, i64 0
  %24 = load i8, ptr %23, align 1, !tbaa !84
  %25 = zext i8 %24 to i32
  %26 = shl i32 %25, 8
  %27 = load ptr, ptr %11, align 8, !tbaa !98
  %28 = load ptr, ptr %27, align 8, !tbaa !13
  %29 = getelementptr inbounds i8, ptr %28, i64 1
  %30 = load i8, ptr %29, align 1, !tbaa !84
  %31 = zext i8 %30 to i32
  %32 = or i32 %26, %31
  store i32 %32, ptr %14, align 4, !tbaa !3
  %33 = load ptr, ptr %13, align 8, !tbaa !107
  %34 = icmp ne ptr %33, null
  br i1 %34, label %35, label %38

35:                                               ; preds = %20
  %36 = load i32, ptr %14, align 4, !tbaa !3
  %37 = load ptr, ptr %13, align 8, !tbaa !107
  store i32 %36, ptr %37, align 4, !tbaa !3
  br label %38

38:                                               ; preds = %35, %20
  %39 = load ptr, ptr %8, align 8, !tbaa !15
  %40 = load i32, ptr %9, align 4, !tbaa !3
  %41 = call i32 @BIO_indent(ptr noundef %39, i32 noundef %40, i32 noundef 80)
  %42 = load ptr, ptr %8, align 8, !tbaa !15
  %43 = load ptr, ptr %10, align 8, !tbaa !13
  %44 = load i32, ptr %14, align 4, !tbaa !3
  %45 = load i32, ptr %14, align 4, !tbaa !3
  %46 = call ptr @do_ssl_trace_str(i32 noundef %45, ptr noundef @ssl_version_tbl, i64 noundef 8)
  %47 = call i32 (ptr, ptr, ...) @BIO_printf(ptr noundef %42, ptr noundef @.str.64, ptr noundef %43, i32 noundef %44, ptr noundef %46)
  %48 = load ptr, ptr %11, align 8, !tbaa !98
  %49 = load ptr, ptr %48, align 8, !tbaa !13
  %50 = getelementptr inbounds i8, ptr %49, i64 2
  store ptr %50, ptr %48, align 8, !tbaa !13
  %51 = load ptr, ptr %12, align 8, !tbaa !100
  %52 = load i64, ptr %51, align 8, !tbaa !9
  %53 = sub i64 %52, 2
  store i64 %53, ptr %51, align 8, !tbaa !9
  store i32 1, ptr %7, align 4
  store i32 1, ptr %15, align 4
  br label %54

54:                                               ; preds = %38, %19
  call void @llvm.lifetime.end.p0(i64 4, ptr %14) #3
  %55 = load i32, ptr %7, align 4
  ret i32 %55
}

; Function Attrs: nounwind uwtable
define internal i32 @dtls_print_hello_vfyrequest(ptr noundef %0, i32 noundef %1, ptr noundef %2, i64 noundef %3) #0 {
  %5 = alloca i32, align 4
  %6 = alloca ptr, align 8
  %7 = alloca i32, align 4
  %8 = alloca ptr, align 8
  %9 = alloca i64, align 8
  store ptr %0, ptr %6, align 8, !tbaa !15
  store i32 %1, ptr %7, align 4, !tbaa !3
  store ptr %2, ptr %8, align 8, !tbaa !13
  store i64 %3, ptr %9, align 8, !tbaa !9
  %10 = load ptr, ptr %6, align 8, !tbaa !15
  %11 = load i32, ptr %7, align 4, !tbaa !3
  %12 = call i32 @ssl_print_version(ptr noundef %10, i32 noundef %11, ptr noundef @.str.416, ptr noundef %8, ptr noundef %9, ptr noundef null)
  %13 = icmp ne i32 %12, 0
  br i1 %13, label %15, label %14

14:                                               ; preds = %4
  store i32 0, ptr %5, align 4
  br label %22

15:                                               ; preds = %4
  %16 = load ptr, ptr %6, align 8, !tbaa !15
  %17 = load i32, ptr %7, align 4, !tbaa !3
  %18 = call i32 @ssl_print_hexbuf(ptr noundef %16, i32 noundef %17, ptr noundef @.str.59, i64 noundef 1, ptr noundef %8, ptr noundef %9)
  %19 = icmp ne i32 %18, 0
  br i1 %19, label %21, label %20

20:                                               ; preds = %15
  store i32 0, ptr %5, align 4
  br label %22

21:                                               ; preds = %15
  store i32 1, ptr %5, align 4
  br label %22

22:                                               ; preds = %21, %20, %14
  %23 = load i32, ptr %5, align 4
  ret i32 %23
}