; Function Attrs: nounwind uwtable
define internal fastcc range(i32 0, 2) i32 @dtls_print_hello_vfyrequest(ptr noundef %0, ptr noundef readonly captures(none) %1, i64 noundef %2) unnamed_addr #0 {
  %4 = icmp ult i64 %2, 2
  br i1 %4, label %ssl_print_version.exit.thread, label %5

5:                                                ; preds = %3
  %6 = load i8, ptr %1, align 1, !tbaa !75
  %7 = zext i8 %6 to i32
  %8 = shl nuw nsw i32 %7, 8
  %9 = getelementptr inbounds nuw i8, ptr %1, i64 1
  %10 = load i8, ptr %9, align 1, !tbaa !75
  %11 = zext i8 %10 to i32
  %12 = or disjoint i32 %8, %11
  %13 = tail call i32 @BIO_indent(ptr noundef %0, i32 noundef 6, i32 noundef 80) #3
  br label %14

14:                                               ; preds = %20, %5
  %.011.i.i = phi i64 [ 0, %5 ], [ %21, %20 ]
  %.0810.i.i = phi ptr [ @ssl_version_tbl, %5 ], [ %22, %20 ]
  %15 = load i32, ptr %.0810.i.i, align 8, !tbaa !78
  %16 = icmp eq i32 %15, %12
  br i1 %16, label %17, label %20

17:                                               ; preds = %14
  %18 = getelementptr inbounds nuw i8, ptr %.0810.i.i, i64 8
  %19 = load ptr, ptr %18, align 8, !tbaa !80
  br label %.loopexit

20:                                               ; preds = %14
  %21 = add nuw nsw i64 %.011.i.i, 1
  %22 = getelementptr inbounds nuw i8, ptr %.0810.i.i, i64 16
  %exitcond.not.i.i = icmp eq i64 %21, 8
  br i1 %exitcond.not.i.i, label %.loopexit, label %14, !llvm.loop !81

.loopexit:                                        ; preds = %20, %17
  %.07.i.i = phi ptr [ %19, %17 ], [ @.str.15, %20 ]
  %23 = tail call i32 (ptr, ptr, ...) @BIO_printf(ptr noundef %0, ptr noundef nonnull @.str.64, ptr noundef nonnull @.str.416, i32 noundef %12, ptr noundef %.07.i.i) #3
  %24 = add i64 %2, -2
  %25 = icmp eq i64 %24, 0
  br i1 %25, label %ssl_print_version.exit.thread, label %26

26:                                               ; preds = %.loopexit
  %27 = getelementptr inbounds nuw i8, ptr %1, i64 2
  %28 = load i8, ptr %27, align 1, !tbaa !75
  %29 = zext i8 %28 to i64
  %.not = icmp ugt i64 %24, %29
  br i1 %.not, label %30, label %ssl_print_version.exit.thread

30:                                               ; preds = %26
  %31 = getelementptr inbounds nuw i8, ptr %1, i64 3
  %32 = tail call i32 @BIO_indent(ptr noundef %0, i32 noundef range(i32 0, 15) 6, i32 noundef 80) #3
  %33 = zext i8 %28 to i32
  %34 = tail call i32 (ptr, ptr, ...) @BIO_printf(ptr noundef %0, ptr noundef nonnull @.str.13, ptr noundef nonnull @.str.59, i32 noundef %33) #3
  %.not.i.i = icmp eq i8 %28, 0
  br i1 %.not.i.i, label %ssl_print_hexbuf.exit, label %.lr.ph.i.i

.lr.ph.i.i:                                       ; preds = %30, %.lr.ph.i.i
  %.011.i.i6 = phi i64 [ %39, %.lr.ph.i.i ], [ 0, %30 ]
  %35 = getelementptr inbounds nuw i8, ptr %31, i64 %.011.i.i6
  %36 = load i8, ptr %35, align 1, !tbaa !75
  %37 = zext i8 %36 to i32
  %38 = tail call i32 (ptr, ptr, ...) @BIO_printf(ptr noundef %0, ptr noundef nonnull @.str.14, i32 noundef %37) #3
  %39 = add nuw nsw i64 %.011.i.i6, 1
  %exitcond.not.i.i7 = icmp eq i64 %39, %29
  br i1 %exitcond.not.i.i7, label %ssl_print_hexbuf.exit, label %.lr.ph.i.i, !llvm.loop !76

ssl_print_hexbuf.exit:                            ; preds = %.lr.ph.i.i, %30
  %40 = tail call i32 @BIO_puts(ptr noundef %0, ptr noundef nonnull @.str.12) #3
  br label %ssl_print_version.exit.thread

ssl_print_version.exit.thread:                    ; preds = %3, %ssl_print_hexbuf.exit, %.loopexit, %26
  %.0 = phi i32 [ 1, %ssl_print_hexbuf.exit ], [ 0, %.loopexit ], [ 0, %26 ], [ 0, %3 ]
  ret i32 %.0
}